; ModuleID = '33/670.c'
source_filename = "33/670.c"
target datalayout = "e-m:e-p270:32:32-p271:32:32-p272:64:64-i64:64-f80:128-n8:16:32:64-S128"
target triple = "x86_64-pc-linux-gnu"

@.str = private unnamed_addr constant [4 x i8] c"%d\0A\00", align 1

; Function Attrs: noinline nounwind uwtable
define dso_local i32 @main() #0 {
  %1 = alloca i32, align 4
  %2 = alloca [1000 x [256 x i8]], align 16
  %3 = alloca [1000 x [256 x i8]], align 16
  %4 = alloca i32, align 4
  %5 = alloca i32, align 4
  %6 = alloca i32, align 4
  store i32 0, i32* %1, align 4
  %7 = call i32 (i8*, ...) @__isoc99_scanf(i8* getelementptr inbounds ([4 x i8], [4 x i8]* @.str, i64 0, i64 0), i32* %6)
  store i32 0, i32* %4, align 4
  br label %8

8:                                                ; preds = %107, %0
  %9 = load i32, i32* %4, align 4
  %10 = load i32, i32* %6, align 4
  %11 = icmp slt i32 %9, %10
  br i1 %11, label %12, label %110

12:                                               ; preds = %8
  %13 = load i32, i32* %4, align 4
  %14 = sext i32 %13 to i64
  %15 = getelementptr inbounds [1000 x [256 x i8]], [1000 x [256 x i8]]* %2, i64 0, i64 %14
  %16 = getelementptr inbounds [256 x i8], [256 x i8]* %15, i64 0, i64 0
  %17 = call i32 (i8*, ...) bitcast (i32 (...)* @gets to i32 (i8*, ...)*)(i8* %16)
  store i32 0, i32* %5, align 4
  br label %18

18:                                               ; preds = %97, %12
  %19 = load i32, i32* %4, align 4
  %20 = sext i32 %19 to i64
  %21 = getelementptr inbounds [1000 x [256 x i8]], [1000 x [256 x i8]]* %2, i64 0, i64 %20
  %22 = load i32, i32* %5, align 4
  %23 = sext i32 %22 to i64
  %24 = getelementptr inbounds [256 x i8], [256 x i8]* %21, i64 0, i64 %23
  %25 = load i8, i8* %24, align 1
  %26 = sext i8 %25 to i32
  %27 = icmp ne i32 %26, 0
  br i1 %27, label %28, label %100

28:                                               ; preds = %18
  %29 = load i32, i32* %4, align 4
  %30 = sext i32 %29 to i64
  %31 = getelementptr inbounds [1000 x [256 x i8]], [1000 x [256 x i8]]* %2, i64 0, i64 %30
  %32 = load i32, i32* %5, align 4
  %33 = sext i32 %32 to i64
  %34 = getelementptr inbounds [256 x i8], [256 x i8]* %31, i64 0, i64 %33
  %35 = load i8, i8* %34, align 1
  %36 = sext i8 %35 to i32
  %37 = icmp eq i32 %36, 65
  br i1 %37, label %38, label %45

38:                                               ; preds = %28
  %39 = load i32, i32* %4, align 4
  %40 = sext i32 %39 to i64
  %41 = getelementptr inbounds [1000 x [256 x i8]], [1000 x [256 x i8]]* %3, i64 0, i64 %40
  %42 = load i32, i32* %5, align 4
  %43 = sext i32 %42 to i64
  %44 = getelementptr inbounds [256 x i8], [256 x i8]* %41, i64 0, i64 %43
  store i8 84, i8* %44, align 1
  br label %45

45:                                               ; preds = %38, %28
  %46 = load i32, i32* %4, align 4
  %47 = sext i32 %46 to i64
  %48 = getelementptr inbounds [1000 x [256 x i8]], [1000 x [256 x i8]]* %2, i64 0, i64 %47
  %49 = load i32, i32* %5, align 4
  %50 = sext i32 %49 to i64
  %51 = getelementptr inbounds [256 x i8], [256 x i8]* %48, i64 0, i64 %50
  %52 = load i8, i8* %51, align 1
  %53 = sext i8 %52 to i32
  %54 = icmp eq i32 %53, 84
  br i1 %54, label %55, label %62

55:                                               ; preds = %45
  %56 = load i32, i32* %4, align 4
  %57 = sext i32 %56 to i64
  %58 = getelementptr inbounds [1000 x [256 x i8]], [1000 x [256 x i8]]* %3, i64 0, i64 %57
  %59 = load i32, i32* %5, align 4
  %60 = sext i32 %59 to i64
  %61 = getelementptr inbounds [256 x i8], [256 x i8]* %58, i64 0, i64 %60
  store i8 65, i8* %61, align 1
  br label %62

62:                                               ; preds = %55, %45
  %63 = load i32, i32* %4, align 4
  %64 = sext i32 %63 to i64
  %65 = getelementptr inbounds [1000 x [256 x i8]], [1000 x [256 x i8]]* %2, i64 0, i64 %64
  %66 = load i32, i32* %5, align 4
  %67 = sext i32 %66 to i64
  %68 = getelementptr inbounds [256 x i8], [256 x i8]* %65, i64 0, i64 %67
  %69 = load i8, i8* %68, align 1
  %70 = sext i8 %69 to i32
  %71 = icmp eq i32 %70, 71
  br i1 %71, label %72, label %79

72:                                               ; preds = %62
  %73 = load i32, i32* %4, align 4
  %74 = sext i32 %73 to i64
  %75 = getelementptr inbounds [1000 x [256 x i8]], [1000 x [256 x i8]]* %3, i64 0, i64 %74
  %76 = load i32, i32* %5, align 4
  %77 = sext i32 %76 to i64
  %78 = getelementptr inbounds [256 x i8], [256 x i8]* %75, i64 0, i64 %77
  store i8 67, i8* %78, align 1
  br label %79

79:                                               ; preds = %72, %62
  %80 = load i32, i32* %4, align 4
  %81 = sext i32 %80 to i64
  %82 = getelementptr inbounds [1000 x [256 x i8]], [1000 x [256 x i8]]* %2, i64 0, i64 %81
  %83 = load i32, i32* %5, align 4
  %84 = sext i32 %83 to i64
  %85 = getelementptr inbounds [256 x i8], [256 x i8]* %82, i64 0, i64 %84
  %86 = load i8, i8* %85, align 1
  %87 = sext i8 %86 to i32
  %88 = icmp eq i32 %87, 67
  br i1 %88, label %89, label %96

89:                                               ; preds = %79
  %90 = load i32, i32* %4, align 4
  %91 = sext i32 %90 to i64
  %92 = getelementptr inbounds [1000 x [256 x i8]], [1000 x [256 x i8]]* %3, i64 0, i64 %91
  %93 = load i32, i32* %5, align 4
  %94 = sext i32 %93 to i64
  %95 = getelementptr inbounds [256 x i8], [256 x i8]* %92, i64 0, i64 %94
  store i8 71, i8* %95, align 1
  br label %96

96:                                               ; preds = %89, %79
  br label %97

97:                                               ; preds = %96
  %98 = load i32, i32* %5, align 4
  %99 = add nsw i32 %98, 1
  store i32 %99, i32* %5, align 4
  br label %18

100:                                              ; preds = %18
  %101 = load i32, i32* %4, align 4
  %102 = sext i32 %101 to i64
  %103 = getelementptr inbounds [1000 x [256 x i8]], [1000 x [256 x i8]]* %3, i64 0, i64 %102
  %104 = load i32, i32* %5, align 4
  %105 = sext i32 %104 to i64
  %106 = getelementptr inbounds [256 x i8], [256 x i8]* %103, i64 0, i64 %105
  store i8 0, i8* %106, align 1
  br label %107

107:                                              ; preds = %100
  %108 = load i32, i32* %4, align 4
  %109 = add nsw i32 %108, 1
  store i32 %109, i32* %4, align 4
  br label %8

110:                                              ; preds = %8
  store i32 0, i32* %4, align 4
  br label %111

111:                                              ; preds = %121, %110
  %112 = load i32, i32* %4, align 4
  %113 = load i32, i32* %6, align 4
  %114 = icmp slt i32 %112, %113
  br i1 %114, label %115, label %124

115:                                              ; preds = %111
  %116 = load i32, i32* %4, align 4
  %117 = sext i32 %116 to i64
  %118 = getelementptr inbounds [1000 x [256 x i8]], [1000 x [256 x i8]]* %3, i64 0, i64 %117
  %119 = getelementptr inbounds [256 x i8], [256 x i8]* %118, i64 0, i64 0
  %120 = call i32 @puts(i8* %119)
  br label %121

121:                                              ; preds = %115
  %122 = load i32, i32* %4, align 4
  %123 = add nsw i32 %122, 1
  store i32 %123, i32* %4, align 4
  br label %111

124:                                              ; preds = %111
  ret i32 0
}

declare dso_local i32 @__isoc99_scanf(i8*, ...) #1

declare dso_local i32 @gets(...) #1

declare dso_local i32 @puts(i8*) #1


!llvm.module.flags = !{!0}
!llvm.ident = !{!1}

!0 = !{i32 1, !"wchar_size", i32 4}
!1 = !{!"clang version 10.0.0-4ubuntu1 "}
