; ModuleID = 'source-C-CXX/32/670.c'
source_filename = "source-C-CXX/32/670.c"
target datalayout = "e-m:e-p270:32:32-p271:32:32-p272:64:64-i64:64-f80:128-n8:16:32:64-S128"
target triple = "x86_64-pc-linux-gnu"

@.str = private unnamed_addr constant [4 x i8] c"%d\0A\00", align 1

; Function Attrs: nounwind sspstrong uwtable
define dso_local i32 @main() local_unnamed_addr #0 {
  %1 = alloca [1000 x [256 x i8]], align 16
  %2 = alloca [1000 x [256 x i8]], align 16
  %3 = alloca i32, align 4
  %4 = getelementptr inbounds [1000 x [256 x i8]], [1000 x [256 x i8]]* %1, i64 0, i64 0, i64 0
  call void @llvm.lifetime.start.p0i8(i64 256000, i8* nonnull %4) #4
  %5 = getelementptr inbounds [1000 x [256 x i8]], [1000 x [256 x i8]]* %2, i64 0, i64 0, i64 0
  call void @llvm.lifetime.start.p0i8(i64 256000, i8* nonnull %5) #4
  %6 = bitcast i32* %3 to i8*
  call void @llvm.lifetime.start.p0i8(i64 4, i8* nonnull %6) #4
  %7 = call i32 (i8*, ...) @__isoc99_scanf(i8* getelementptr inbounds ([4 x i8], [4 x i8]* @.str, i64 0, i64 0), i32* nonnull %3)
  %8 = load i32, i32* %3, align 4, !tbaa !5
  %9 = icmp sgt i32 %8, 0
  br i1 %9, label %12, label %43

10:                                               ; preds = %28
  %11 = icmp sgt i32 %32, 0
  br i1 %11, label %35, label %43

12:                                               ; preds = %0, %28
  %13 = phi i64 [ %31, %28 ], [ 0, %0 ]
  %14 = getelementptr inbounds [1000 x [256 x i8]], [1000 x [256 x i8]]* %1, i64 0, i64 %13, i64 0
  %15 = call i32 (i8*, ...) bitcast (i32 (...)* @gets to i32 (i8*, ...)*)(i8* nonnull %14) #4
  br label %16

16:                                               ; preds = %26, %12
  %17 = phi i64 [ %27, %26 ], [ 0, %12 ]
  %18 = getelementptr inbounds [1000 x [256 x i8]], [1000 x [256 x i8]]* %1, i64 0, i64 %13, i64 %17
  %19 = load i8, i8* %18, align 1, !tbaa !9
  switch i8 %19, label %26 [
    i8 0, label %28
    i8 65, label %23
    i8 84, label %20
    i8 71, label %21
    i8 67, label %22
  ]

20:                                               ; preds = %16
  br label %23

21:                                               ; preds = %16
  br label %23

22:                                               ; preds = %16
  br label %23

23:                                               ; preds = %16, %22, %21, %20
  %24 = phi i8 [ 65, %20 ], [ 67, %21 ], [ 71, %22 ], [ 84, %16 ]
  %25 = getelementptr inbounds [1000 x [256 x i8]], [1000 x [256 x i8]]* %2, i64 0, i64 %13, i64 %17
  store i8 %24, i8* %25, align 1, !tbaa !9
  br label %26

26:                                               ; preds = %23, %16
  %27 = add nuw i64 %17, 1
  br label %16, !llvm.loop !10

28:                                               ; preds = %16
  %29 = and i64 %17, 4294967295
  %30 = getelementptr inbounds [1000 x [256 x i8]], [1000 x [256 x i8]]* %2, i64 0, i64 %13, i64 %29
  store i8 0, i8* %30, align 1, !tbaa !9
  %31 = add nuw nsw i64 %13, 1
  %32 = load i32, i32* %3, align 4, !tbaa !5
  %33 = sext i32 %32 to i64
  %34 = icmp slt i64 %31, %33
  br i1 %34, label %12, label %10, !llvm.loop !12

35:                                               ; preds = %10, %35
  %36 = phi i64 [ %39, %35 ], [ 0, %10 ]
  %37 = getelementptr inbounds [1000 x [256 x i8]], [1000 x [256 x i8]]* %2, i64 0, i64 %36, i64 0
  %38 = call i32 @puts(i8* nonnull %37)
  %39 = add nuw nsw i64 %36, 1
  %40 = load i32, i32* %3, align 4, !tbaa !5
  %41 = sext i32 %40 to i64
  %42 = icmp slt i64 %39, %41
  br i1 %42, label %35, label %43, !llvm.loop !13

43:                                               ; preds = %35, %0, %10
  call void @llvm.lifetime.end.p0i8(i64 4, i8* nonnull %6) #4
  call void @llvm.lifetime.end.p0i8(i64 256000, i8* nonnull %5) #4
  call void @llvm.lifetime.end.p0i8(i64 256000, i8* nonnull %4) #4
  ret i32 0
}

; Function Attrs: argmemonly mustprogress nofree nosync nounwind willreturn
declare void @llvm.lifetime.start.p0i8(i64 immarg, i8* nocapture) #1

; Function Attrs: nofree nounwind
declare noundef i32 @__isoc99_scanf(i8* nocapture noundef readonly, ...) local_unnamed_addr #2

declare i32 @gets(...) local_unnamed_addr #3

; Function Attrs: nofree nounwind
declare noundef i32 @puts(i8* nocapture noundef readonly) local_unnamed_addr #2

; Function Attrs: argmemonly mustprogress nofree nosync nounwind willreturn
declare void @llvm.lifetime.end.p0i8(i64 immarg, i8* nocapture) #1


!llvm.module.flags = !{!0, !1, !2, !3}
!llvm.ident = !{!4}

!0 = !{i32 1, !"wchar_size", i32 4}
!1 = !{i32 7, !"PIC Level", i32 2}
!2 = !{i32 7, !"PIE Level", i32 2}
!3 = !{i32 7, !"uwtable", i32 1}
!4 = !{!"clang version 13.0.0"}
!5 = !{!6, !6, i64 0}
!6 = !{!"int", !7, i64 0}
!7 = !{!"omnipotent char", !8, i64 0}
!8 = !{!"Simple C/C++ TBAA"}
!9 = !{!7, !7, i64 0}
!10 = distinct !{!10, !11}
!11 = !{!"llvm.loop.mustprogress"}
!12 = distinct !{!12, !11}
!13 = distinct !{!13, !11}
